; Function Attrs: mustprogress uwtable
define void @_ZN8QuantLib8Calendar28resetAddedAndRemovedHolidaysEv(ptr nocapture noundef nonnull readonly align 8 dereferenceable(16) %this) local_unnamed_addr #0 align 2 personality ptr @__gxx_personality_v0 {
entry:
  %0 = load ptr, ptr %this, align 8, !tbaa !3
  %cmp.not.i = icmp eq ptr %0, null
  br i1 %cmp.not.i, label %cond.false.i, label %_ZNK5boost10shared_ptrIN8QuantLib8Calendar4ImplEEptEv.exit, !prof !15

cond.false.i:                                     ; preds = %entry
  tail call void @_ZN5boost16assertion_failedEPKcS1_S1_l(ptr noundef nonnull @.str.11, ptr noundef nonnull @__PRETTY_FUNCTION__._ZNK5boost10shared_ptrIN8QuantLib8Calendar4ImplEEptEv, ptr noundef nonnull @.str.12, i64 noundef 784)
  %.pre.i = load ptr, ptr %this, align 8, !tbaa !3
  br label %_ZNK5boost10shared_ptrIN8QuantLib8Calendar4ImplEEptEv.exit

_ZNK5boost10shared_ptrIN8QuantLib8Calendar4ImplEEptEv.exit: ; preds = %entry, %cond.false.i
  %1 = phi ptr [ %0, %entry ], [ %.pre.i, %cond.false.i ]
  %addedHolidays = getelementptr inbounds nuw i8, ptr %1, i64 8
  %_M_parent.i.i.i.i = getelementptr inbounds i8, ptr %1, i64 24
  %2 = load ptr, ptr %_M_parent.i.i.i.i, align 8, !tbaa !31
  invoke void @_ZNSt8_Rb_treeIN8QuantLib4DateES1_St9_IdentityIS1_ESt4lessIS1_ESaIS1_EE8_M_eraseEPSt13_Rb_tree_nodeIS1_E(ptr noundef nonnull align 8 dereferenceable(48) %addedHolidays, ptr noundef %2)
          to label %_ZNSt3setIN8QuantLib4DateESt4lessIS1_ESaIS1_EE5clearEv.exit unwind label %terminate.lpad.i.i

terminate.lpad.i.i:                               ; preds = %_ZNK5boost10shared_ptrIN8QuantLib8Calendar4ImplEEptEv.exit
  %3 = landingpad { ptr, i32 }
          catch ptr null
  %4 = extractvalue { ptr, i32 } %3, 0
  tail call void @__clang_call_terminate(ptr %4) #27
  unreachable

_ZNSt3setIN8QuantLib4DateESt4lessIS1_ESaIS1_EE5clearEv.exit: ; preds = %_ZNK5boost10shared_ptrIN8QuantLib8Calendar4ImplEEptEv.exit
  %add.ptr.i.i = getelementptr inbounds i8, ptr %1, i64 16
  store ptr null, ptr %_M_parent.i.i.i.i, align 8, !tbaa !31
  %_M_left.i.i.i = getelementptr inbounds i8, ptr %1, i64 32
  store ptr %add.ptr.i.i, ptr %_M_left.i.i.i, align 8, !tbaa !24
  %_M_right.i.i.i = getelementptr inbounds i8, ptr %1, i64 40
  store ptr %add.ptr.i.i, ptr %_M_right.i.i.i, align 8, !tbaa !32
  %_M_node_count.i.i.i = getelementptr inbounds i8, ptr %1, i64 48
  store i64 0, ptr %_M_node_count.i.i.i, align 8, !tbaa !28
  %5 = load ptr, ptr %this, align 8, !tbaa !3
  %cmp.not.i1 = icmp eq ptr %5, null
  br i1 %cmp.not.i1, label %cond.false.i2, label %_ZNK5boost10shared_ptrIN8QuantLib8Calendar4ImplEEptEv.exit4, !prof !15

cond.false.i2:                                    ; preds = %_ZNSt3setIN8QuantLib4DateESt4lessIS1_ESaIS1_EE5clearEv.exit
  tail call void @_ZN5boost16assertion_failedEPKcS1_S1_l(ptr noundef nonnull @.str.11, ptr noundef nonnull @__PRETTY_FUNCTION__._ZNK5boost10shared_ptrIN8QuantLib8Calendar4ImplEEptEv, ptr noundef nonnull @.str.12, i64 noundef 784)
  %.pre.i3 = load ptr, ptr %this, align 8, !tbaa !3
  br label %_ZNK5boost10shared_ptrIN8QuantLib8Calendar4ImplEEptEv.exit4

_ZNK5boost10shared_ptrIN8QuantLib8Calendar4ImplEEptEv.exit4: ; preds = %_ZNSt3setIN8QuantLib4DateESt4lessIS1_ESaIS1_EE5clearEv.exit, %cond.false.i2
  %6 = phi ptr [ %5, %_ZNSt3setIN8QuantLib4DateESt4lessIS1_ESaIS1_EE5clearEv.exit ], [ %.pre.i3, %cond.false.i2 ]
  %removedHolidays = getelementptr inbounds nuw i8, ptr %6, i64 56
  %_M_parent.i.i.i.i5 = getelementptr inbounds i8, ptr %6, i64 72
  %7 = load ptr, ptr %_M_parent.i.i.i.i5, align 8, !tbaa !31
  invoke void @_ZNSt8_Rb_treeIN8QuantLib4DateES1_St9_IdentityIS1_ESt4lessIS1_ESaIS1_EE8_M_eraseEPSt13_Rb_tree_nodeIS1_E(ptr noundef nonnull align 8 dereferenceable(48) %removedHolidays, ptr noundef %7)
          to label %_ZNSt3setIN8QuantLib4DateESt4lessIS1_ESaIS1_EE5clearEv.exit11 unwind label %terminate.lpad.i.i6

terminate.lpad.i.i6:                              ; preds = %_ZNK5boost10shared_ptrIN8QuantLib8Calendar4ImplEEptEv.exit4
  %8 = landingpad { ptr, i32 }
          catch ptr null
  %9 = extractvalue { ptr, i32 } %8, 0
  tail call void @__clang_call_terminate(ptr %9) #27
  unreachable

_ZNSt3setIN8QuantLib4DateESt4lessIS1_ESaIS1_EE5clearEv.exit11: ; preds = %_ZNK5boost10shared_ptrIN8QuantLib8Calendar4ImplEEptEv.exit4
  %add.ptr.i.i7 = getelementptr inbounds i8, ptr %6, i64 64
  store ptr null, ptr %_M_parent.i.i.i.i5, align 8, !tbaa !31
  %_M_left.i.i.i8 = getelementptr inbounds i8, ptr %6, i64 80
  store ptr %add.ptr.i.i7, ptr %_M_left.i.i.i8, align 8, !tbaa !24
  %_M_right.i.i.i9 = getelementptr inbounds i8, ptr %6, i64 88
  store ptr %add.ptr.i.i7, ptr %_M_right.i.i.i9, align 8, !tbaa !32
  %_M_node_count.i.i.i10 = getelementptr inbounds i8, ptr %6, i64 96
  store i64 0, ptr %_M_node_count.i.i.i10, align 8, !tbaa !28
  ret void
}